target datalayout = "e-m:e-p270:32:32-p271:32:32-p272:64:64-i64:64-i128:128-f80:128-n8:16:32:64-S128"
target triple = "x86_64-pc-linux-gnu"

%class.btSimulationIslandManagerMt = type { %class.btSimulationIslandManager.base, [7 x i8], %class.btAlignedObjectArray.4, %class.btAlignedObjectArray.4, %class.btAlignedObjectArray.4, %class.btAlignedObjectArray.4, ptr, i32, i32, ptr }
%class.btSimulationIslandManager.base = type <{ ptr, %class.btUnionFind, %class.btAlignedObjectArray.0, %class.btAlignedObjectArray.2, i8 }>
%class.btUnionFind = type { %class.btAlignedObjectArray }
%class.btAlignedObjectArray = type <{ [4 x i8], i32, i32, [4 x i8], ptr, i8, [7 x i8] }>
%class.btAlignedObjectArray.0 = type <{ [4 x i8], i32, i32, [4 x i8], ptr, i8, [7 x i8] }>
%class.btAlignedObjectArray.2 = type <{ [4 x i8], i32, i32, [4 x i8], ptr, i8, [7 x i8] }>
%class.btAlignedObjectArray.4 = type <{ [4 x i8], i32, i32, [4 x i8], ptr, i8, [7 x i8] }>
%"struct.btSimulationIslandManagerMt::Island" = type <{ %class.btAlignedObjectArray.2, %class.btAlignedObjectArray.0, %class.btAlignedObjectArray.6, i32, i8, [3 x i8] }>
%class.btAlignedObjectArray.6 = type <{ [4 x i8], i32, i32, [4 x i8], ptr, i8, [7 x i8] }>

; Function Attrs: inlinehint mustprogress nounwind uwtable
define linkonce_odr dso_local noundef i32 @_ZNK20btAlignedObjectArrayIPN27btSimulationIslandManagerMt6IslandEE4sizeEv(ptr noundef nonnull align 8 dereferenceable(25) %0) #4 comdat align 2 {
  %2 = alloca ptr, align 8
  store ptr %0, ptr %2, align 8, !tbaa !37
  %3 = load ptr, ptr %2, align 8
  %4 = getelementptr inbounds nuw %class.btAlignedObjectArray.4, ptr %3, i32 0, i32 1
  %5 = load i32, ptr %4, align 4, !tbaa !51
  ret i32 %5
}

; Function Attrs: inlinehint mustprogress nounwind uwtable
define linkonce_odr dso_local noundef nonnull align 8 dereferenceable(8) ptr @_ZN20btAlignedObjectArrayIPN27btSimulationIslandManagerMt6IslandEEixEi(ptr noundef nonnull align 8 dereferenceable(25) %0, i32 noundef %1) #4 comdat align 2 {
  %3 = alloca ptr, align 8
  %4 = alloca i32, align 4
  store ptr %0, ptr %3, align 8, !tbaa !37
  store i32 %1, ptr %4, align 4, !tbaa !9
  %5 = load ptr, ptr %3, align 8
  %6 = getelementptr inbounds nuw %class.btAlignedObjectArray.4, ptr %5, i32 0, i32 4
  %7 = load ptr, ptr %6, align 8, !tbaa !52
  %8 = load i32, ptr %4, align 4, !tbaa !9
  %9 = sext i32 %8 to i64
  %10 = getelementptr inbounds ptr, ptr %7, i64 %9
  ret ptr %10
}

; Function Attrs: mustprogress uwtable
define dso_local noundef ptr @_ZN27btSimulationIslandManagerMt9getIslandEi(ptr noundef nonnull align 8 dereferenceable(264) %0, i32 noundef %1) #2 align 2 {
  %3 = alloca ptr, align 8
  %4 = alloca i32, align 4
  %5 = alloca ptr, align 8
  %6 = alloca i32, align 4
  %7 = alloca i32, align 4
  store ptr %0, ptr %3, align 8, !tbaa !12
  store i32 %1, ptr %4, align 4, !tbaa !9
  %8 = load ptr, ptr %3, align 8
  call void @llvm.lifetime.start.p0(i64 8, ptr %5) #13
  %9 = getelementptr inbounds nuw %class.btSimulationIslandManagerMt, ptr %8, i32 0, i32 5
  %10 = load i32, ptr %4, align 4, !tbaa !9
  %11 = call noundef nonnull align 8 dereferenceable(8) ptr @_ZN20btAlignedObjectArrayIPN27btSimulationIslandManagerMt6IslandEEixEi(ptr noundef nonnull align 8 dereferenceable(25) %9, i32 noundef %10)
  %12 = load ptr, ptr %11, align 8, !tbaa !47
  store ptr %12, ptr %5, align 8, !tbaa !47
  %13 = load ptr, ptr %5, align 8, !tbaa !47
  %14 = icmp eq ptr %13, null
  br i1 %14, label %15, label %46

15:                                               ; preds = %2
  call void @llvm.lifetime.start.p0(i64 4, ptr %6) #13
  store i32 0, ptr %6, align 4, !tbaa !9
  br label %16

16:                                               ; preds = %37, %15
  %17 = load i32, ptr %6, align 4, !tbaa !9
  %18 = getelementptr inbounds nuw %class.btSimulationIslandManagerMt, ptr %8, i32 0, i32 3
  %19 = call noundef i32 @_ZNK20btAlignedObjectArrayIPN27btSimulationIslandManagerMt6IslandEE4sizeEv(ptr noundef nonnull align 8 dereferenceable(25) %18)
  %20 = icmp slt i32 %17, %19
  br i1 %20, label %22, label %21

21:                                               ; preds = %16
  store i32 2, ptr %7, align 4
  br label %40

22:                                               ; preds = %16
  %23 = getelementptr inbounds nuw %class.btSimulationIslandManagerMt, ptr %8, i32 0, i32 3
  %24 = load i32, ptr %6, align 4, !tbaa !9
  %25 = call noundef nonnull align 8 dereferenceable(8) ptr @_ZN20btAlignedObjectArrayIPN27btSimulationIslandManagerMt6IslandEEixEi(ptr noundef nonnull align 8 dereferenceable(25) %23, i32 noundef %24)
  %26 = load ptr, ptr %25, align 8, !tbaa !47
  %27 = getelementptr inbounds nuw %"struct.btSimulationIslandManagerMt::Island", ptr %26, i32 0, i32 3
  %28 = load i32, ptr %27, align 8, !tbaa !89
  %29 = load i32, ptr %4, align 4, !tbaa !9
  %30 = icmp eq i32 %28, %29
  br i1 %30, label %31, label %36

31:                                               ; preds = %22
  %32 = getelementptr inbounds nuw %class.btSimulationIslandManagerMt, ptr %8, i32 0, i32 3
  %33 = load i32, ptr %6, align 4, !tbaa !9
  %34 = call noundef nonnull align 8 dereferenceable(8) ptr @_ZN20btAlignedObjectArrayIPN27btSimulationIslandManagerMt6IslandEEixEi(ptr noundef nonnull align 8 dereferenceable(25) %32, i32 noundef %33)
  %35 = load ptr, ptr %34, align 8, !tbaa !47
  store ptr %35, ptr %5, align 8, !tbaa !47
  store i32 2, ptr %7, align 4
  br label %40

36:                                               ; preds = %22
  br label %37

37:                                               ; preds = %36
  %38 = load i32, ptr %6, align 4, !tbaa !9
  %39 = add nsw i32 %38, 1
  store i32 %39, ptr %6, align 4, !tbaa !9
  br label %16, !llvm.loop !106

40:                                               ; preds = %31, %21
  call void @llvm.lifetime.end.p0(i64 4, ptr %6) #13
  br label %41

41:                                               ; preds = %40
  %42 = load ptr, ptr %5, align 8, !tbaa !47
  %43 = getelementptr inbounds nuw %class.btSimulationIslandManagerMt, ptr %8, i32 0, i32 5
  %44 = load i32, ptr %4, align 4, !tbaa !9
  %45 = call noundef nonnull align 8 dereferenceable(8) ptr @_ZN20btAlignedObjectArrayIPN27btSimulationIslandManagerMt6IslandEEixEi(ptr noundef nonnull align 8 dereferenceable(25) %43, i32 noundef %44)
  store ptr %42, ptr %45, align 8, !tbaa !47
  br label %46

46:                                               ; preds = %41, %2
  %47 = load ptr, ptr %5, align 8, !tbaa !47
  store i32 1, ptr %7, align 4
  call void @llvm.lifetime.end.p0(i64 8, ptr %5) #13
  ret ptr %47
}