; Function Attrs: mustprogress nofree norecurse nosync nounwind memory(readwrite, inaccessiblemem: none) uwtable
define dso_local noundef ptr @_ZN27btSimulationIslandManagerMt9getIslandEi(ptr noundef nonnull readonly align 8 captures(none) dereferenceable(264) %0, i32 noundef %1) local_unnamed_addr #10 align 2 {
  %3 = getelementptr inbounds nuw i8, ptr %0, i64 224
  %4 = load ptr, ptr %3, align 8, !tbaa !15
  %5 = sext i32 %1 to i64
  %6 = getelementptr inbounds ptr, ptr %4, i64 %5
  %7 = load ptr, ptr %6, align 8, !tbaa !45
  %8 = icmp eq ptr %7, null
  br i1 %8, label %.preheader, label %21

.preheader:                                       ; preds = %2
  %9 = getelementptr inbounds nuw i8, ptr %0, i64 148
  %10 = load i32, ptr %9, align 4, !tbaa !16
  %11 = icmp sgt i32 %10, 0
  br i1 %11, label %.lr.ph, label %._crit_edge

.lr.ph:                                           ; preds = %.preheader
  %12 = getelementptr inbounds nuw i8, ptr %0, i64 160
  %13 = load ptr, ptr %12, align 8, !tbaa !15
  %wide.trip.count = zext nneg i32 %10 to i64
  br label %15

14:                                               ; preds = %15
  %indvars.iv.next = add nuw nsw i64 %indvars.iv, 1
  %exitcond.not = icmp eq i64 %indvars.iv.next, %wide.trip.count
  br i1 %exitcond.not, label %._crit_edge, label %15, !llvm.loop !89

15:                                               ; preds = %.lr.ph, %14
  %indvars.iv = phi i64 [ 0, %.lr.ph ], [ %indvars.iv.next, %14 ]
  %16 = getelementptr inbounds nuw ptr, ptr %13, i64 %indvars.iv
  %17 = load ptr, ptr %16, align 8, !tbaa !45
  %18 = getelementptr inbounds nuw i8, ptr %17, i64 96
  %19 = load i32, ptr %18, align 8, !tbaa !85
  %20 = icmp eq i32 %19, %1
  br i1 %20, label %._crit_edge, label %14

._crit_edge:                                      ; preds = %14, %15, %.preheader
  %.1 = phi ptr [ null, %.preheader ], [ %17, %15 ], [ null, %14 ]
  store ptr %.1, ptr %6, align 8, !tbaa !45
  br label %21

21:                                               ; preds = %._crit_edge, %2
  %.010 = phi ptr [ %.1, %._crit_edge ], [ %7, %2 ]
  ret ptr %.010
}